target datalayout = "e-m:e-p270:32:32-p271:32:32-p272:64:64-i64:64-i128:128-f80:128-n8:16:32:64-S128"
target triple = "x86_64-pc-linux-gnu"

%struct.jv = type { i8, i8, i16, i32, %union.anon }
%union.anon = type { ptr }
%struct.sort_entry = type { %struct.jv, %struct.jv, i32 }

; Function Attrs: nounwind uwtable
define internal i32 @sort_cmp(ptr noundef %0, ptr noundef %1) #0 {
  %3 = alloca ptr, align 8
  %4 = alloca ptr, align 8
  %5 = alloca ptr, align 8
  %6 = alloca ptr, align 8
  %7 = alloca i32, align 4
  %8 = alloca %struct.jv, align 8
  %9 = alloca %struct.jv, align 8
  store ptr %0, ptr %3, align 8, !tbaa !30
  store ptr %1, ptr %4, align 8, !tbaa !30
  call void @llvm.lifetime.start.p0(i64 8, ptr %5) #6
  %10 = load ptr, ptr %3, align 8, !tbaa !30
  store ptr %10, ptr %5, align 8, !tbaa !23
  call void @llvm.lifetime.start.p0(i64 8, ptr %6) #6
  %11 = load ptr, ptr %4, align 8, !tbaa !30
  store ptr %11, ptr %6, align 8, !tbaa !23
  call void @llvm.lifetime.start.p0(i64 4, ptr %7) #6
  %12 = load ptr, ptr %5, align 8, !tbaa !23
  %13 = getelementptr inbounds nuw %struct.sort_entry, ptr %12, i32 0, i32 1
  %14 = getelementptr inbounds nuw { i64, ptr }, ptr %13, i32 0, i32 0
  %15 = load i64, ptr %14, align 8
  %16 = getelementptr inbounds nuw { i64, ptr }, ptr %13, i32 0, i32 1
  %17 = load ptr, ptr %16, align 8
  %18 = call { i64, ptr } @jv_copy(i64 %15, ptr %17)
  %19 = getelementptr inbounds nuw { i64, ptr }, ptr %8, i32 0, i32 0
  %20 = extractvalue { i64, ptr } %18, 0
  store i64 %20, ptr %19, align 8
  %21 = getelementptr inbounds nuw { i64, ptr }, ptr %8, i32 0, i32 1
  %22 = extractvalue { i64, ptr } %18, 1
  store ptr %22, ptr %21, align 8
  %23 = load ptr, ptr %6, align 8, !tbaa !23
  %24 = getelementptr inbounds nuw %struct.sort_entry, ptr %23, i32 0, i32 1
  %25 = getelementptr inbounds nuw { i64, ptr }, ptr %24, i32 0, i32 0
  %26 = load i64, ptr %25, align 8
  %27 = getelementptr inbounds nuw { i64, ptr }, ptr %24, i32 0, i32 1
  %28 = load ptr, ptr %27, align 8
  %29 = call { i64, ptr } @jv_copy(i64 %26, ptr %28)
  %30 = getelementptr inbounds nuw { i64, ptr }, ptr %9, i32 0, i32 0
  %31 = extractvalue { i64, ptr } %29, 0
  store i64 %31, ptr %30, align 8
  %32 = getelementptr inbounds nuw { i64, ptr }, ptr %9, i32 0, i32 1
  %33 = extractvalue { i64, ptr } %29, 1
  store ptr %33, ptr %32, align 8
  %34 = getelementptr inbounds nuw { i64, ptr }, ptr %8, i32 0, i32 0
  %35 = load i64, ptr %34, align 8
  %36 = getelementptr inbounds nuw { i64, ptr }, ptr %8, i32 0, i32 1
  %37 = load ptr, ptr %36, align 8
  %38 = getelementptr inbounds nuw { i64, ptr }, ptr %9, i32 0, i32 0
  %39 = load i64, ptr %38, align 8
  %40 = getelementptr inbounds nuw { i64, ptr }, ptr %9, i32 0, i32 1
  %41 = load ptr, ptr %40, align 8
  %42 = call i32 @jv_cmp(i64 %35, ptr %37, i64 %39, ptr %41)
  store i32 %42, ptr %7, align 4, !tbaa !10
  %43 = load i32, ptr %7, align 4, !tbaa !10
  %44 = icmp ne i32 %43, 0
  br i1 %44, label %45, label %47

45:                                               ; preds = %2
  %46 = load i32, ptr %7, align 4, !tbaa !10
  br label %55

47:                                               ; preds = %2
  %48 = load ptr, ptr %5, align 8, !tbaa !23
  %49 = getelementptr inbounds nuw %struct.sort_entry, ptr %48, i32 0, i32 2
  %50 = load i32, ptr %49, align 8, !tbaa !38
  %51 = load ptr, ptr %6, align 8, !tbaa !23
  %52 = getelementptr inbounds nuw %struct.sort_entry, ptr %51, i32 0, i32 2
  %53 = load i32, ptr %52, align 8, !tbaa !38
  %54 = sub nsw i32 %50, %53
  br label %55

55:                                               ; preds = %47, %45
  %56 = phi i32 [ %46, %45 ], [ %54, %47 ]
  call void @llvm.lifetime.end.p0(i64 4, ptr %7) #6
  call void @llvm.lifetime.end.p0(i64 8, ptr %6) #6
  call void @llvm.lifetime.end.p0(i64 8, ptr %5) #6
  ret i32 %56
}