; Function Attrs: nounwind uwtable
define internal i32 @sort_cmp(ptr noundef readonly captures(none) %0, ptr noundef readonly captures(none) %1) #0 {
  %3 = getelementptr inbounds nuw i8, ptr %0, i64 16
  %4 = load i64, ptr %3, align 8
  %5 = getelementptr inbounds nuw i8, ptr %0, i64 24
  %6 = load ptr, ptr %5, align 8
  %7 = tail call { i64, ptr } @jv_copy(i64 %4, ptr %6) #6
  %8 = extractvalue { i64, ptr } %7, 0
  %9 = extractvalue { i64, ptr } %7, 1
  %10 = getelementptr inbounds nuw i8, ptr %1, i64 16
  %11 = load i64, ptr %10, align 8
  %12 = getelementptr inbounds nuw i8, ptr %1, i64 24
  %13 = load ptr, ptr %12, align 8
  %14 = tail call { i64, ptr } @jv_copy(i64 %11, ptr %13) #6
  %15 = extractvalue { i64, ptr } %14, 0
  %16 = extractvalue { i64, ptr } %14, 1
  %17 = tail call i32 @jv_cmp(i64 %8, ptr %9, i64 %15, ptr %16)
  %.not = icmp eq i32 %17, 0
  br i1 %.not, label %18, label %24

18:                                               ; preds = %2
  %19 = getelementptr inbounds nuw i8, ptr %0, i64 32
  %20 = load i32, ptr %19, align 8, !tbaa !26
  %21 = getelementptr inbounds nuw i8, ptr %1, i64 32
  %22 = load i32, ptr %21, align 8, !tbaa !26
  %23 = sub nsw i32 %20, %22
  br label %24

24:                                               ; preds = %2, %18
  %25 = phi i32 [ %23, %18 ], [ %17, %2 ]
  ret i32 %25
}